; Function Attrs: mustprogress uwtable
define internal void @"_ZNSt17_Function_handlerIFvN3sat7literalERK7svectorIS1_jEEZNS0_14anf_simplifier12compile_aigsER10ptr_vectorINS0_6clauseEERS2_ISt4pairIS1_S1_EjERN2dd6solverEE3$_0E9_M_invokeERKSt9_Any_dataOS1_S5_"(ptr nocapture noundef nonnull readonly align 8 dereferenceable(16) %__functor, ptr nocapture noundef nonnull readonly align 4 dereferenceable(4) %__args, ptr nocapture noundef nonnull readonly align 8 dereferenceable(8) %__args1) #3 align 2 {
entry:
  %ref.tmp.i.i.i = alloca %"struct.std::pair", align 8
  %__functor.val = load ptr, ptr %__functor, align 8
  %__args.val = load i32, ptr %__args, align 4
  call void @llvm.lifetime.start.p0(i64 8, ptr nonnull %ref.tmp.i.i.i)
  %0 = load ptr, ptr %__functor.val, align 8
  %1 = getelementptr inbounds i8, ptr %__functor.val, i64 8
  %2 = load ptr, ptr %1, align 8
  tail call void @_ZN3sat14anf_simplifier7add_aigENS_7literalERK7svectorIS1_jERN2dd6solverE(ptr nonnull align 8 poison, i32 %__args.val, ptr noundef nonnull align 8 dereferenceable(8) %__args1, ptr noundef nonnull align 8 dereferenceable(208) %2)
  %3 = load ptr, ptr %__args1, align 8
  %cmp.i.i.i.i.i = icmp eq ptr %3, null
  br i1 %cmp.i.i.i.i.i, label %"_ZSt10__invoke_rIvRZN3sat14anf_simplifier12compile_aigsER10ptr_vectorINS0_6clauseEER7svectorISt4pairINS0_7literalES8_EjERN2dd6solverEE3$_0JS8_RKS6_IS8_jEEENSt9enable_ifIX16is_invocable_r_vIT_T0_DpT1_EESL_E4typeEOSM_DpOSN_.exit", label %_ZNK6vectorIN3sat7literalELb0EjE3endEv.exit.i.i.i

_ZNK6vectorIN3sat7literalELb0EjE3endEv.exit.i.i.i: ; preds = %entry
  %arrayidx.i.i.i.i.i = getelementptr inbounds i8, ptr %3, i64 -4
  %4 = load i32, ptr %arrayidx.i.i.i.i.i, align 4
  %5 = zext i32 %4 to i64
  %add.ptr.i.i.i.i = getelementptr inbounds %"class.sat::literal", ptr %3, i64 %5
  %cmp.not7.i.i.i = icmp eq i32 %4, 0
  br i1 %cmp.not7.i.i.i, label %"_ZSt10__invoke_rIvRZN3sat14anf_simplifier12compile_aigsER10ptr_vectorINS0_6clauseEER7svectorISt4pairINS0_7literalES8_EjERN2dd6solverEE3$_0JS8_RKS6_IS8_jEEENSt9enable_ifIX16is_invocable_r_vIT_T0_DpT1_EESL_E4typeEOSM_DpOSN_.exit", label %for.body.lr.ph.i.i.i

for.body.lr.ph.i.i.i:                             ; preds = %_ZNK6vectorIN3sat7literalELb0EjE3endEv.exit.i.i.i
  %6 = getelementptr inbounds i8, ptr %__functor.val, i64 16
  br label %for.body.i.i.i

for.body.i.i.i:                                   ; preds = %for.body.i.i.i, %for.body.lr.ph.i.i.i
  %__begin2.08.i.i.i = phi ptr [ %3, %for.body.lr.ph.i.i.i ], [ %incdec.ptr.i.i.i, %for.body.i.i.i ]
  %l.sroa.0.0.copyload.i.i.i = load i32, ptr %__begin2.08.i.i.i, align 4
  %7 = load ptr, ptr %6, align 8
  %xor.i.i.i.i = xor i32 %l.sroa.0.0.copyload.i.i.i, 1
  %retval.sroa.3.0.i.i.i.i = call i32 @llvm.umax.i32(i32 %xor.i.i.i.i, i32 %__args.val)
  %retval.sroa.0.0.i.i.i.i = call i32 @llvm.umin.i32(i32 %xor.i.i.i.i, i32 %__args.val)
  %retval.sroa.3.0.insert.ext.i.i.i.i = zext i32 %retval.sroa.3.0.i.i.i.i to i64
  %retval.sroa.3.0.insert.shift.i.i.i.i = shl nuw i64 %retval.sroa.3.0.insert.ext.i.i.i.i, 32
  %retval.sroa.0.0.insert.ext.i.i.i.i = zext i32 %retval.sroa.0.0.i.i.i.i to i64
  %retval.sroa.0.0.insert.insert.i.i.i.i = or disjoint i64 %retval.sroa.3.0.insert.shift.i.i.i.i, %retval.sroa.0.0.insert.ext.i.i.i.i
  store i64 %retval.sroa.0.0.insert.insert.i.i.i.i, ptr %ref.tmp.i.i.i, align 8
  call void @_ZN14core_hashtableI18default_hash_entryISt4pairIN3sat7literalES3_EENS2_6solver15bin_clause_hashE10default_eqIS4_EE6insertEOS4_(ptr noundef nonnull align 8 dereferenceable(20) %7, ptr noundef nonnull align 4 dereferenceable(8) %ref.tmp.i.i.i)
  %incdec.ptr.i.i.i = getelementptr inbounds i8, ptr %__begin2.08.i.i.i, i64 4
  %cmp.not.i.i.i = icmp eq ptr %incdec.ptr.i.i.i, %add.ptr.i.i.i.i
  br i1 %cmp.not.i.i.i, label %"_ZSt10__invoke_rIvRZN3sat14anf_simplifier12compile_aigsER10ptr_vectorINS0_6clauseEER7svectorISt4pairINS0_7literalES8_EjERN2dd6solverEE3$_0JS8_RKS6_IS8_jEEENSt9enable_ifIX16is_invocable_r_vIT_T0_DpT1_EESL_E4typeEOSM_DpOSN_.exit", label %for.body.i.i.i

"_ZSt10__invoke_rIvRZN3sat14anf_simplifier12compile_aigsER10ptr_vectorINS0_6clauseEER7svectorISt4pairINS0_7literalES8_EjERN2dd6solverEE3$_0JS8_RKS6_IS8_jEEENSt9enable_ifIX16is_invocable_r_vIT_T0_DpT1_EESL_E4typeEOSM_DpOSN_.exit": ; preds = %for.body.i.i.i, %entry, %_ZNK6vectorIN3sat7literalELb0EjE3endEv.exit.i.i.i
  %m_num_aigs.i.i.i = getelementptr inbounds i8, ptr %0, i64 40
  %8 = load i32, ptr %m_num_aigs.i.i.i, align 8
  %inc.i.i.i = add i32 %8, 1
  store i32 %inc.i.i.i, ptr %m_num_aigs.i.i.i, align 8
  call void @llvm.lifetime.end.p0(i64 8, ptr nonnull %ref.tmp.i.i.i)
  ret void
}